; Function Attrs: nounwind uwtable
define internal void @_destory_local_mod_qos(ptr noundef readonly captures(address_is_null) %0) #0 {
  %.not = icmp eq ptr %0, null
  br i1 %.not, label %5, label %2

2:                                                ; preds = %1
  %3 = getelementptr inbounds nuw i8, ptr %0, i64 8
  %4 = load ptr, ptr %3, align 8
  tail call void @slurmdb_destroy_qos_rec(ptr noundef %4) #12
  br label %5

5:                                                ; preds = %1, %2
  ret void
}